target datalayout = "e-m:e-p270:32:32-p271:32:32-p272:64:64-i64:64-i128:128-f80:128-n8:16:32:64-S128"
target triple = "x86_64-pc-linux-gnu"

%"class.std::vector.231" = type { %"struct.std::_Vector_base.232" }
%"struct.std::_Vector_base.232" = type { %"struct.std::_Vector_base<AlignPair, std::allocator<AlignPair>>::_Vector_impl" }
%"struct.std::_Vector_base<AlignPair, std::allocator<AlignPair>>::_Vector_impl" = type { %"struct.std::_Vector_base<AlignPair, std::allocator<AlignPair>>::_Vector_impl_data" }
%"struct.std::_Vector_base<AlignPair, std::allocator<AlignPair>>::_Vector_impl_data" = type { ptr, ptr, ptr }
%class.SubGraph = type { i32, %"class.std::vector.226" }
%"class.std::vector.226" = type { %"struct.std::_Vector_base.227" }
%"struct.std::_Vector_base.227" = type { %"struct.std::_Vector_base<Node, std::allocator<Node>>::_Vector_impl" }
%"struct.std::_Vector_base<Node, std::allocator<Node>>::_Vector_impl" = type { %"struct.std::_Vector_base<Node, std::allocator<Node>>::_Vector_impl_data" }
%"struct.std::_Vector_base<Node, std::allocator<Node>>::_Vector_impl_data" = type { ptr, ptr, ptr }
%class.Node = type { i8, i8, i32, i32, double, %"class.std::vector.231" }
%class.AlignPair = type <{ i32, i32, i32, float, float, float, i8, [3 x i8] }>

; Function Attrs: mustprogress nounwind uwtable
define linkonce_odr noundef nonnull align 4 dereferenceable(25) ptr @_ZNSt6vectorI9AlignPairSaIS0_EEixEm(ptr noundef nonnull align 8 dereferenceable(24) %0, i64 noundef %1) #4 comdat align 2 {
  %3 = alloca ptr, align 8
  %4 = alloca i64, align 8
  store ptr %0, ptr %3, align 8
  store i64 %1, ptr %4, align 8
  %5 = load ptr, ptr %3, align 8
  %6 = getelementptr inbounds %"struct.std::_Vector_base.232", ptr %5, i32 0, i32 0
  %7 = getelementptr inbounds %"struct.std::_Vector_base<AlignPair, std::allocator<AlignPair>>::_Vector_impl_data", ptr %6, i32 0, i32 0
  %8 = load ptr, ptr %7, align 8
  %9 = load i64, ptr %4, align 8
  %10 = getelementptr inbounds %class.AlignPair, ptr %8, i64 %9
  ret ptr %10
}

; Function Attrs: mustprogress nounwind uwtable
define linkonce_odr noundef i64 @_ZNKSt6vectorI9AlignPairSaIS0_EE4sizeEv(ptr noundef nonnull align 8 dereferenceable(24) %0) #4 comdat align 2 {
  %2 = alloca ptr, align 8
  store ptr %0, ptr %2, align 8
  %3 = load ptr, ptr %2, align 8
  %4 = getelementptr inbounds %"struct.std::_Vector_base.232", ptr %3, i32 0, i32 0
  %5 = getelementptr inbounds %"struct.std::_Vector_base<AlignPair, std::allocator<AlignPair>>::_Vector_impl_data", ptr %4, i32 0, i32 1
  %6 = load ptr, ptr %5, align 8
  %7 = getelementptr inbounds %"struct.std::_Vector_base.232", ptr %3, i32 0, i32 0
  %8 = getelementptr inbounds %"struct.std::_Vector_base<AlignPair, std::allocator<AlignPair>>::_Vector_impl_data", ptr %7, i32 0, i32 0
  %9 = load ptr, ptr %8, align 8
  %10 = ptrtoint ptr %6 to i64
  %11 = ptrtoint ptr %9 to i64
  %12 = sub i64 %10, %11
  %13 = sdiv exact i64 %12, 28
  ret i64 %13
}

; Function Attrs: mustprogress nounwind uwtable
define linkonce_odr noundef nonnull align 8 dereferenceable(48) ptr @_ZNSt6vectorI4NodeSaIS0_EEixEm(ptr noundef nonnull align 8 dereferenceable(24) %0, i64 noundef %1) #4 comdat align 2 {
  %3 = alloca ptr, align 8
  %4 = alloca i64, align 8
  store ptr %0, ptr %3, align 8
  store i64 %1, ptr %4, align 8
  %5 = load ptr, ptr %3, align 8
  %6 = getelementptr inbounds %"struct.std::_Vector_base.227", ptr %5, i32 0, i32 0
  %7 = getelementptr inbounds %"struct.std::_Vector_base<Node, std::allocator<Node>>::_Vector_impl_data", ptr %6, i32 0, i32 0
  %8 = load ptr, ptr %7, align 8
  %9 = load i64, ptr %4, align 8
  %10 = getelementptr inbounds %class.Node, ptr %8, i64 %9
  ret ptr %10
}

; Function Attrs: mustprogress nounwind uwtable
define linkonce_odr noundef i64 @_ZNKSt6vectorI4NodeSaIS0_EE4sizeEv(ptr noundef nonnull align 8 dereferenceable(24) %0) #4 comdat align 2 {
  %2 = alloca ptr, align 8
  store ptr %0, ptr %2, align 8
  %3 = load ptr, ptr %2, align 8
  %4 = getelementptr inbounds %"struct.std::_Vector_base.227", ptr %3, i32 0, i32 0
  %5 = getelementptr inbounds %"struct.std::_Vector_base<Node, std::allocator<Node>>::_Vector_impl_data", ptr %4, i32 0, i32 1
  %6 = load ptr, ptr %5, align 8
  %7 = getelementptr inbounds %"struct.std::_Vector_base.227", ptr %3, i32 0, i32 0
  %8 = getelementptr inbounds %"struct.std::_Vector_base<Node, std::allocator<Node>>::_Vector_impl_data", ptr %7, i32 0, i32 0
  %9 = load ptr, ptr %8, align 8
  %10 = ptrtoint ptr %6 to i64
  %11 = ptrtoint ptr %9 to i64
  %12 = sub i64 %10, %11
  %13 = sdiv exact i64 %12, 48
  ret i64 %13
}

; Function Attrs: mustprogress nounwind uwtable
define noundef i32 @_ZN18FilterMutualGlobal15getTheRightNodeE8SubGraph(ptr noundef nonnull align 8 dereferenceable(80) %0, ptr noundef %1) #4 align 2 {
  %3 = alloca ptr, align 8
  %4 = alloca ptr, align 8
  %5 = alloca i32, align 4
  %6 = alloca i32, align 4
  %7 = alloca i32, align 4
  %8 = alloca i32, align 4
  %9 = alloca i32, align 4
  %10 = alloca i32, align 4
  store ptr %0, ptr %3, align 8
  store ptr %1, ptr %4, align 8
  store i32 0, ptr %5, align 4
  store i32 -1, ptr %6, align 4
  store i32 0, ptr %8, align 4
  br label %11

11:                                               ; preds = %115, %2
  %12 = load i32, ptr %8, align 4
  %13 = zext i32 %12 to i64
  %14 = getelementptr inbounds %class.SubGraph, ptr %1, i32 0, i32 1
  %15 = call noundef i64 @_ZNKSt6vectorI4NodeSaIS0_EE4sizeEv(ptr noundef nonnull align 8 dereferenceable(24) %14) #3
  %16 = icmp ult i64 %13, %15
  br i1 %16, label %17, label %118

17:                                               ; preds = %11
  store i32 0, ptr %9, align 4
  %18 = getelementptr inbounds %class.SubGraph, ptr %1, i32 0, i32 1
  %19 = load i32, ptr %8, align 4
  %20 = zext i32 %19 to i64
  %21 = call noundef nonnull align 8 dereferenceable(48) ptr @_ZNSt6vectorI4NodeSaIS0_EEixEm(ptr noundef nonnull align 8 dereferenceable(24) %18, i64 noundef %20) #3
  %22 = getelementptr inbounds %class.Node, ptr %21, i32 0, i32 5
  %23 = call noundef i64 @_ZNKSt6vectorI9AlignPairSaIS0_EE4sizeEv(ptr noundef nonnull align 8 dereferenceable(24) %22) #3
  %24 = load i32, ptr %5, align 4
  %25 = zext i32 %24 to i64
  %26 = icmp uge i64 %23, %25
  br i1 %26, label %27, label %114

27:                                               ; preds = %17
  %28 = getelementptr inbounds %class.SubGraph, ptr %1, i32 0, i32 1
  %29 = load i32, ptr %8, align 4
  %30 = zext i32 %29 to i64
  %31 = call noundef nonnull align 8 dereferenceable(48) ptr @_ZNSt6vectorI4NodeSaIS0_EEixEm(ptr noundef nonnull align 8 dereferenceable(24) %28, i64 noundef %30) #3
  %32 = getelementptr inbounds %class.Node, ptr %31, i32 0, i32 0
  %33 = load i8, ptr %32, align 8
  %34 = trunc i8 %33 to i1
  br i1 %34, label %114, label %35

35:                                               ; preds = %27
  store i32 0, ptr %10, align 4
  br label %36

36:                                               ; preds = %67, %35
  %37 = load i32, ptr %10, align 4
  %38 = zext i32 %37 to i64
  %39 = getelementptr inbounds %class.SubGraph, ptr %1, i32 0, i32 1
  %40 = load i32, ptr %8, align 4
  %41 = zext i32 %40 to i64
  %42 = call noundef nonnull align 8 dereferenceable(48) ptr @_ZNSt6vectorI4NodeSaIS0_EEixEm(ptr noundef nonnull align 8 dereferenceable(24) %39, i64 noundef %41) #3
  %43 = getelementptr inbounds %class.Node, ptr %42, i32 0, i32 5
  %44 = call noundef i64 @_ZNKSt6vectorI9AlignPairSaIS0_EE4sizeEv(ptr noundef nonnull align 8 dereferenceable(24) %43) #3
  %45 = icmp ult i64 %38, %44
  br i1 %45, label %46, label %70

46:                                               ; preds = %36
  %47 = getelementptr inbounds %class.SubGraph, ptr %1, i32 0, i32 1
  %48 = getelementptr inbounds %class.SubGraph, ptr %1, i32 0, i32 1
  %49 = load i32, ptr %8, align 4
  %50 = zext i32 %49 to i64
  %51 = call noundef nonnull align 8 dereferenceable(48) ptr @_ZNSt6vectorI4NodeSaIS0_EEixEm(ptr noundef nonnull align 8 dereferenceable(24) %48, i64 noundef %50) #3
  %52 = getelementptr inbounds %class.Node, ptr %51, i32 0, i32 5
  %53 = load i32, ptr %10, align 4
  %54 = zext i32 %53 to i64
  %55 = call noundef nonnull align 4 dereferenceable(25) ptr @_ZNSt6vectorI9AlignPairSaIS0_EEixEm(ptr noundef nonnull align 8 dereferenceable(24) %52, i64 noundef %54) #3
  %56 = getelementptr inbounds %class.AlignPair, ptr %55, i32 0, i32 1
  %57 = load i32, ptr %56, align 4
  %58 = sext i32 %57 to i64
  %59 = call noundef nonnull align 8 dereferenceable(48) ptr @_ZNSt6vectorI4NodeSaIS0_EEixEm(ptr noundef nonnull align 8 dereferenceable(24) %47, i64 noundef %58) #3
  %60 = getelementptr inbounds %class.Node, ptr %59, i32 0, i32 0
  %61 = load i8, ptr %60, align 8
  %62 = trunc i8 %61 to i1
  br i1 %62, label %63, label %66

63:                                               ; preds = %46
  %64 = load i32, ptr %9, align 4
  %65 = add nsw i32 %64, 1
  store i32 %65, ptr %9, align 4
  br label %66

66:                                               ; preds = %63, %46
  br label %67

67:                                               ; preds = %66
  %68 = load i32, ptr %10, align 4
  %69 = add i32 %68, 1
  store i32 %69, ptr %10, align 4
  br label %36, !llvm.loop !89

70:                                               ; preds = %36
  %71 = load i32, ptr %9, align 4
  %72 = load i32, ptr %6, align 4
  %73 = icmp sgt i32 %71, %72
  br i1 %73, label %74, label %84

74:                                               ; preds = %70
  %75 = load i32, ptr %9, align 4
  store i32 %75, ptr %6, align 4
  %76 = getelementptr inbounds %class.SubGraph, ptr %1, i32 0, i32 1
  %77 = load i32, ptr %8, align 4
  %78 = zext i32 %77 to i64
  %79 = call noundef nonnull align 8 dereferenceable(48) ptr @_ZNSt6vectorI4NodeSaIS0_EEixEm(ptr noundef nonnull align 8 dereferenceable(24) %76, i64 noundef %78) #3
  %80 = getelementptr inbounds %class.Node, ptr %79, i32 0, i32 5
  %81 = call noundef i64 @_ZNKSt6vectorI9AlignPairSaIS0_EE4sizeEv(ptr noundef nonnull align 8 dereferenceable(24) %80) #3
  %82 = trunc i64 %81 to i32
  store i32 %82, ptr %5, align 4
  %83 = load i32, ptr %8, align 4
  store i32 %83, ptr %7, align 4
  br label %113

84:                                               ; preds = %70
  %85 = load i32, ptr %9, align 4
  %86 = load i32, ptr %6, align 4
  %87 = icmp eq i32 %85, %86
  br i1 %87, label %88, label %112

88:                                               ; preds = %84
  %89 = getelementptr inbounds %class.SubGraph, ptr %1, i32 0, i32 1
  %90 = load i32, ptr %8, align 4
  %91 = zext i32 %90 to i64
  %92 = call noundef nonnull align 8 dereferenceable(48) ptr @_ZNSt6vectorI4NodeSaIS0_EEixEm(ptr noundef nonnull align 8 dereferenceable(24) %89, i64 noundef %91) #3
  %93 = getelementptr inbounds %class.Node, ptr %92, i32 0, i32 4
  %94 = load double, ptr %93, align 8
  %95 = getelementptr inbounds %class.SubGraph, ptr %1, i32 0, i32 1
  %96 = load i32, ptr %7, align 4
  %97 = sext i32 %96 to i64
  %98 = call noundef nonnull align 8 dereferenceable(48) ptr @_ZNSt6vectorI4NodeSaIS0_EEixEm(ptr noundef nonnull align 8 dereferenceable(24) %95, i64 noundef %97) #3
  %99 = getelementptr inbounds %class.Node, ptr %98, i32 0, i32 4
  %100 = load double, ptr %99, align 8
  %101 = fcmp ogt double %94, %100
  br i1 %101, label %102, label %112

102:                                              ; preds = %88
  %103 = load i32, ptr %9, align 4
  store i32 %103, ptr %6, align 4
  %104 = getelementptr inbounds %class.SubGraph, ptr %1, i32 0, i32 1
  %105 = load i32, ptr %8, align 4
  %106 = zext i32 %105 to i64
  %107 = call noundef nonnull align 8 dereferenceable(48) ptr @_ZNSt6vectorI4NodeSaIS0_EEixEm(ptr noundef nonnull align 8 dereferenceable(24) %104, i64 noundef %106) #3
  %108 = getelementptr inbounds %class.Node, ptr %107, i32 0, i32 5
  %109 = call noundef i64 @_ZNKSt6vectorI9AlignPairSaIS0_EE4sizeEv(ptr noundef nonnull align 8 dereferenceable(24) %108) #3
  %110 = trunc i64 %109 to i32
  store i32 %110, ptr %5, align 4
  %111 = load i32, ptr %8, align 4
  store i32 %111, ptr %7, align 4
  br label %112

112:                                              ; preds = %102, %88, %84
  br label %113

113:                                              ; preds = %112, %74
  br label %114

114:                                              ; preds = %113, %27, %17
  br label %115

115:                                              ; preds = %114
  %116 = load i32, ptr %8, align 4
  %117 = add i32 %116, 1
  store i32 %117, ptr %8, align 4
  br label %11, !llvm.loop !90

118:                                              ; preds = %11
  %119 = load i32, ptr %7, align 4
  ret i32 %119
}