; Function Attrs: mustprogress nofree norecurse nosync nounwind memory(read, inaccessiblemem: write) uwtable
define noundef i32 @_ZN18FilterMutualGlobal15getTheRightNodeE8SubGraph(ptr nocapture noundef nonnull readnone align 8 dereferenceable(80) %0, ptr nocapture noundef readonly %1) local_unnamed_addr #19 align 2 {
  %3 = getelementptr inbounds i8, ptr %1, i64 8
  %4 = getelementptr inbounds i8, ptr %1, i64 16
  %5 = load ptr, ptr %4, align 8
  %6 = ptrtoint ptr %5 to i64
  %7 = load ptr, ptr %3, align 8
  %8 = ptrtoint ptr %7 to i64
  %9 = sub i64 %6, %8
  %10 = sdiv exact i64 %9, 48
  %11 = icmp ne ptr %5, %7
  tail call void @llvm.assume(i1 %11)
  br label %.lr.ph43

.lr.ph43:                                         ; preds = %2, %51
  %indvars.iv = phi i64 [ 0, %2 ], [ %indvars.iv.next, %51 ]
  %.02640 = phi i32 [ undef, %2 ], [ %.127, %51 ]
  %.02839 = phi i32 [ -1, %2 ], [ %.129, %51 ]
  %.03038 = phi i32 [ 0, %2 ], [ %.131, %51 ]
  %12 = getelementptr inbounds %class.Node, ptr %7, i64 %indvars.iv
  %13 = getelementptr inbounds i8, ptr %12, i64 24
  %14 = getelementptr inbounds i8, ptr %12, i64 32
  %15 = load ptr, ptr %14, align 8
  %16 = load ptr, ptr %13, align 8
  %17 = ptrtoint ptr %15 to i64
  %18 = ptrtoint ptr %16 to i64
  %19 = sub i64 %17, %18
  %20 = sdiv exact i64 %19, 28
  %21 = zext i32 %.03038 to i64
  %.not = icmp ult i64 %20, %21
  br i1 %.not, label %51, label %22

22:                                               ; preds = %.lr.ph43
  %23 = load i8, ptr %12, align 8
  %24 = and i8 %23, 1
  %.not34 = icmp eq i8 %24, 0
  br i1 %.not34, label %.preheader, label %51

.preheader:                                       ; preds = %22
  %.not46 = icmp eq ptr %15, %16
  br i1 %.not46, label %._crit_edge, label %.lr.ph

.lr.ph:                                           ; preds = %.preheader, %.lr.ph
  %25 = phi i64 [ %34, %.lr.ph ], [ 0, %.preheader ]
  %.037 = phi i32 [ %33, %.lr.ph ], [ 0, %.preheader ]
  %.02436 = phi i32 [ %spec.select, %.lr.ph ], [ 0, %.preheader ]
  %26 = getelementptr inbounds %class.AlignPair, ptr %16, i64 %25, i32 1
  %27 = load i32, ptr %26, align 4
  %28 = sext i32 %27 to i64
  %29 = getelementptr inbounds %class.Node, ptr %7, i64 %28
  %30 = load i8, ptr %29, align 8
  %31 = and i8 %30, 1
  %32 = zext nneg i8 %31 to i32
  %spec.select = add i32 %.02436, %32
  %33 = add i32 %.037, 1
  %34 = zext i32 %33 to i64
  %35 = icmp ugt i64 %20, %34
  br i1 %35, label %.lr.ph, label %._crit_edge, !llvm.loop !57

._crit_edge:                                      ; preds = %.lr.ph, %.preheader
  %.024.lcssa = phi i32 [ 0, %.preheader ], [ %spec.select, %.lr.ph ]
  %36 = icmp sgt i32 %.024.lcssa, %.02839
  %37 = trunc i64 %indvars.iv to i32
  br i1 %36, label %38, label %40

38:                                               ; preds = %._crit_edge
  %39 = trunc i64 %20 to i32
  br label %51

40:                                               ; preds = %._crit_edge
  %41 = icmp eq i32 %.024.lcssa, %.02839
  br i1 %41, label %42, label %51

42:                                               ; preds = %40
  %43 = getelementptr inbounds i8, ptr %12, i64 16
  %44 = load double, ptr %43, align 8
  %45 = sext i32 %.02640 to i64
  %46 = getelementptr inbounds %class.Node, ptr %7, i64 %45, i32 4
  %47 = load double, ptr %46, align 8
  %48 = fcmp ogt double %44, %47
  br i1 %48, label %49, label %51

49:                                               ; preds = %42
  %50 = trunc i64 %20 to i32
  br label %51

51:                                               ; preds = %.lr.ph43, %22, %40, %42, %49, %38
  %.131 = phi i32 [ %.03038, %22 ], [ %39, %38 ], [ %50, %49 ], [ %.03038, %42 ], [ %.03038, %40 ], [ %.03038, %.lr.ph43 ]
  %.129 = phi i32 [ %.02839, %22 ], [ %.024.lcssa, %38 ], [ %.02839, %49 ], [ %.02839, %42 ], [ %.02839, %40 ], [ %.02839, %.lr.ph43 ]
  %.127 = phi i32 [ %.02640, %22 ], [ %37, %38 ], [ %37, %49 ], [ %.02640, %42 ], [ %.02640, %40 ], [ %.02640, %.lr.ph43 ]
  %indvars.iv.next = add i64 %indvars.iv, 1
  %52 = and i64 %indvars.iv.next, 4294967295
  %53 = icmp ugt i64 %10, %52
  br i1 %53, label %.lr.ph43, label %._crit_edge44, !llvm.loop !58

._crit_edge44:                                    ; preds = %51
  ret i32 %.127
}